; Function Attrs: nounwind uwtable
define ptr @l_Lean_PersistentHashMap_forIn___rarg(ptr readnone captures(none) %0, ptr readnone captures(none) %1, ptr noundef %2, ptr noundef %3, ptr noundef %4, ptr noundef %5) local_unnamed_addr #2 {
  %7 = getelementptr inbounds nuw i8, ptr %2, i64 16
  %8 = load ptr, ptr %7, align 8, !tbaa !9
  %9 = ptrtoint ptr %8 to i64
  %10 = and i64 %9, 1
  %.not = icmp eq i64 %10, 0
  br i1 %.not, label %11, label %lean_inc.exit21

11:                                               ; preds = %6
  %.val.i = load i32, ptr %8, align 4, !tbaa !4
  %12 = icmp sgt i32 %.val.i, 0
  br i1 %12, label %13, label %15, !prof !11

13:                                               ; preds = %11
  %14 = add nuw i32 %.val.i, 1
  store i32 %14, ptr %8, align 4, !tbaa !4
  br label %lean_inc.exit21

15:                                               ; preds = %11
  %.not.i = icmp eq i32 %.val.i, 0
  br i1 %.not.i, label %lean_inc.exit21, label %16

16:                                               ; preds = %15
  tail call void @lean_inc_ref_cold(ptr noundef nonnull %8) #7
  br label %lean_inc.exit21

lean_inc.exit21:                                  ; preds = %16, %15, %13, %6
  %17 = load ptr, ptr @l_Lean_PersistentHashMap_forIn___rarg___closed__1, align 8, !tbaa !9
  %18 = ptrtoint ptr %2 to i64
  %19 = and i64 %18, 1
  %.not29 = icmp eq i64 %19, 0
  br i1 %.not29, label %20, label %lean_inc.exit20

20:                                               ; preds = %lean_inc.exit21
  %.val.i22 = load i32, ptr %2, align 4, !tbaa !4
  %21 = icmp sgt i32 %.val.i22, 0
  br i1 %21, label %22, label %24, !prof !11

22:                                               ; preds = %20
  %23 = add nuw i32 %.val.i22, 1
  store i32 %23, ptr %2, align 4, !tbaa !4
  br label %lean_inc.exit20

24:                                               ; preds = %20
  %.not.i23 = icmp eq i32 %.val.i22, 0
  br i1 %.not.i23, label %lean_inc.exit20, label %25

25:                                               ; preds = %24
  tail call void @lean_inc_ref_cold(ptr noundef nonnull %2) #7
  br label %lean_inc.exit20

lean_inc.exit20:                                  ; preds = %25, %24, %22, %lean_inc.exit21
  tail call void @lean_inc_heartbeat() #7
  %26 = tail call noalias ptr @mi_malloc_small(i64 noundef 48) #7
  %27 = icmp eq ptr %26, null
  br i1 %27, label %28, label %lean_alloc_closure.exit

28:                                               ; preds = %lean_inc.exit20
  tail call void @lean_internal_panic_out_of_memory() #8
  unreachable

lean_alloc_closure.exit:                          ; preds = %lean_inc.exit20
  %29 = getelementptr inbounds nuw i8, ptr %26, i64 4
  store i32 1, ptr %26, align 4, !tbaa !4
  store i32 -184549328, ptr %29, align 4
  %30 = getelementptr inbounds nuw i8, ptr %26, i64 8
  store ptr @l_Lean_PersistentHashMap_forIn___rarg___lambda__2, ptr %30, align 8, !tbaa !9
  %31 = getelementptr inbounds nuw i8, ptr %26, i64 16
  store i16 6, ptr %31, align 8, !tbaa !14
  %32 = getelementptr inbounds nuw i8, ptr %26, i64 18
  store i16 3, ptr %32, align 2, !tbaa !14
  %33 = getelementptr inbounds nuw i8, ptr %26, i64 24
  store ptr %2, ptr %33, align 8, !tbaa !9
  %34 = getelementptr inbounds nuw i8, ptr %26, i64 32
  store ptr %5, ptr %34, align 8, !tbaa !9
  %35 = getelementptr inbounds nuw i8, ptr %26, i64 40
  store ptr %17, ptr %35, align 8, !tbaa !9
  br i1 %.not29, label %36, label %lean_inc.exit

36:                                               ; preds = %lean_alloc_closure.exit
  %.val.i25 = load i32, ptr %2, align 4, !tbaa !4
  %37 = icmp sgt i32 %.val.i25, 0
  br i1 %37, label %38, label %40, !prof !11

38:                                               ; preds = %36
  %39 = add nuw i32 %.val.i25, 1
  store i32 %39, ptr %2, align 4, !tbaa !4
  br label %lean_inc.exit

40:                                               ; preds = %36
  %.not.i26 = icmp eq i32 %.val.i25, 0
  br i1 %.not.i26, label %lean_inc.exit, label %41

41:                                               ; preds = %40
  tail call void @lean_inc_ref_cold(ptr noundef nonnull %2) #7
  br label %lean_inc.exit

lean_inc.exit:                                    ; preds = %41, %40, %38, %lean_alloc_closure.exit
  %42 = tail call ptr @l_Lean_PersistentHashMap_foldlMAux___at_Lean_PersistentHashMap_forIn___spec__2___rarg(ptr noundef nonnull %2, ptr nonnull poison, ptr nonnull poison, ptr nonnull poison, ptr noundef nonnull %26, ptr noundef %3, ptr noundef %4)
  tail call void @lean_inc_heartbeat() #7
  %43 = tail call noalias ptr @mi_malloc_small(i64 noundef 32) #7
  %44 = icmp eq ptr %43, null
  br i1 %44, label %45, label %lean_alloc_closure.exit28

45:                                               ; preds = %lean_inc.exit
  tail call void @lean_internal_panic_out_of_memory() #8
  unreachable

lean_alloc_closure.exit28:                        ; preds = %lean_inc.exit
  %46 = getelementptr inbounds nuw i8, ptr %43, i64 4
  store i32 1, ptr %43, align 4, !tbaa !4
  store i32 -184549344, ptr %46, align 4
  %47 = getelementptr inbounds nuw i8, ptr %43, i64 8
  store ptr @l_Lean_PersistentHashMap_forIn___rarg___lambda__3, ptr %47, align 8, !tbaa !9
  %48 = getelementptr inbounds nuw i8, ptr %43, i64 16
  store i16 2, ptr %48, align 8, !tbaa !14
  %49 = getelementptr inbounds nuw i8, ptr %43, i64 18
  store i16 1, ptr %49, align 2, !tbaa !14
  %50 = getelementptr inbounds nuw i8, ptr %43, i64 24
  store ptr %2, ptr %50, align 8, !tbaa !9
  %51 = tail call ptr @lean_apply_4(ptr noundef %8, ptr noundef nonnull inttoptr (i64 1 to ptr), ptr noundef nonnull inttoptr (i64 1 to ptr), ptr noundef %42, ptr noundef nonnull %43) #7
  ret ptr %51
}